     1 00000000                                 [FORMAT "WCOFF"]
     2 00000000                                 [INSTRSET "i486p"]
     3 00000000                                 [OPTIMIZE 1]
     4 00000000                                 [OPTION 1]
     5 00000000                                 [BITS 32]
     6 00000000                                 	EXTERN	__alloca
     7 00000000                                 	EXTERN	_api_openwin
     8 00000000                                 	EXTERN	_api_boxfilwin
     9 00000000                                 	EXTERN	_api_getkey
    10 00000000                                 	EXTERN	_api_putstrwin
    11 00000000                                 [FILE "notepad.c"]
    12                                          [SECTION .data]
    13 00000000                                 LC0:
    14 00000000 4E 6F 74 65 70 61 64 00         	DB	"Notepad",0x00
    15                                          [SECTION .text]
    16 00000000                                 	GLOBAL	_HighMain
    17 00000000                                 _HighMain:
    18 00000000 55                              	PUSH	EBP
    19 00000001 B8 0005E204                     	MOV	EAX,385540
    20 00000006 89 E5                           	MOV	EBP,ESP
    21 00000008 57                              	PUSH	EDI
    22 00000009 56                              	PUSH	ESI
    23 0000000A 53                              	PUSH	EBX
    24 0000000B 8D 7D 84                        	LEA	EDI,DWORD [-124+EBP]
    25 0000000E E8 [00000000]                   	CALL	__alloca
    26 00000013 31 C0                           	XOR	EAX,EAX
    27 00000015 FC                              	CLD
    28 00000016 B9 00000019                     	MOV	ECX,25
    29 0000001B C7 85 FFFA1DFC 00000000         	MOV	DWORD [-385540+EBP],0
    30 00000025 C7 85 FFFA1DF8 00000000         	MOV	DWORD [-385544+EBP],0
    31 0000002F F3                              	REP
    32 00000030 AB                              	STOSD
    33 00000031 68 [00000000]                   	PUSH	LC0
    34 00000036 8D 85 FFFA1E04                  	LEA	EAX,DWORD [-385532+EBP]
    35 0000003C 68 000001B8                     	PUSH	440
    36 00000041 68 00000334                     	PUSH	820
    37 00000046 50                              	PUSH	EAX
    38 00000047 E8 [00000000]                   	CALL	_api_openwin
    39 0000004C 6A 00                           	PUSH	0
    40 0000004E 68 000001B0                     	PUSH	432
    41 00000053 89 C6                           	MOV	ESI,EAX
    42 00000055 68 0000032C                     	PUSH	812
    43 0000005A 6A 1C                           	PUSH	28
    44 0000005C 6A 08                           	PUSH	8
    45 0000005E 50                              	PUSH	EAX
    46 0000005F E8 [00000000]                   	CALL	_api_boxfilwin
    47 00000064 83 C4 28                        	ADD	ESP,40
    48 00000067 6A 07                           	PUSH	7
    49 00000069 68 000001AF                     	PUSH	431
    50 0000006E 68 0000032B                     	PUSH	811
    51 00000073 6A 1D                           	PUSH	29
    52 00000075 6A 09                           	PUSH	9
    53 00000077 56                              	PUSH	ESI
    54 00000078 E8 [00000000]                   	CALL	_api_boxfilwin
    55 0000007D 83 C4 18                        	ADD	ESP,24
    56 00000080 C7 85 FFFA1DF4 0000001E         	MOV	DWORD [-385548+EBP],30
    57 0000008A C7 85 FFFA1DF0 0000002E         	MOV	DWORD [-385552+EBP],46
    58 00000094                                 L5:
    59 00000094 8B 95 FFFA1DFC                  	MOV	EDX,DWORD [-385540+EBP]
    60 0000009A 6A 00                           	PUSH	0
    61 0000009C FF B5 FFFA1DF0                  	PUSH	DWORD [-385552+EBP]
    62 000000A2 8D 1C D5 0000000A               	LEA	EBX,DWORD [10+EDX*8]
    63 000000A9 53                              	PUSH	EBX
    64 000000AA FF B5 FFFA1DF4                  	PUSH	DWORD [-385548+EBP]
    65 000000B0 53                              	PUSH	EBX
    66 000000B1 56                              	PUSH	ESI
    67 000000B2 E8 [00000000]                   	CALL	_api_boxfilwin
    68 000000B7 6A 00                           	PUSH	0
    69 000000B9 E8 [00000000]                   	CALL	_api_getkey
    70 000000BE 83 C4 1C                        	ADD	ESP,28
    71 000000C1 89 C7                           	MOV	EDI,EAX
    72 000000C3 83 F8 FF                        	CMP	EAX,-1
    73 000000C6 74 CC                           	JE	L5
    74 000000C8 83 F8 08                        	CMP	EAX,8
    75 000000CB 0F 84 00000184                  	JE	L27
    76 000000D1 83 F8 0A                        	CMP	EAX,10
    77 000000D4 0F 84 00000109                  	JE	L28
    78 000000DA 6A 07                           	PUSH	7
    79 000000DC FF B5 FFFA1DF0                  	PUSH	DWORD [-385552+EBP]
    80 000000E2 53                              	PUSH	EBX
    81 000000E3 FF B5 FFFA1DF4                  	PUSH	DWORD [-385548+EBP]
    82 000000E9 53                              	PUSH	EBX
    83 000000EA 56                              	PUSH	ESI
    84 000000EB E8 [00000000]                   	CALL	_api_boxfilwin
    85 000000F0 83 C4 18                        	ADD	ESP,24
    86 000000F3 83 BD FFFA1DFC 64               	CMP	DWORD [-385540+EBP],100
    87 000000FA 0F 84 000000A4                  	JE	L29
    88 00000100                                 L18:
    89 00000100 83 BD FFFA1DF8 18               	CMP	DWORD [-385544+EBP],24
    90 00000107 74 71                           	JE	L30
    91 00000109 83 BD FFFA1DF8 17               	CMP	DWORD [-385544+EBP],23
    92 00000110 7F 3D                           	JG	L22
    93 00000112 89 F8                           	MOV	EAX,EDI
    94 00000114 88 85 FFFA1E02                  	MOV	BYTE [-385534+EBP],AL
    95 0000011A 8D 85 FFFA1E02                  	LEA	EAX,DWORD [-385534+EBP]
    96 00000120 50                              	PUSH	EAX
    97 00000121 6A 01                           	PUSH	1
    98 00000123 6A 00                           	PUSH	0
    99 00000125 C6 85 FFFA1E03 00               	MOV	BYTE [-385533+EBP],0
   100 0000012C FF B5 FFFA1DF4                  	PUSH	DWORD [-385548+EBP]
   101 00000132                                 L26:
   102 00000132 8B 95 FFFA1DFC                  	MOV	EDX,DWORD [-385540+EBP]
   103 00000138 8D 04 D5 0000000A               	LEA	EAX,DWORD [10+EDX*8]
   104 0000013F 50                              	PUSH	EAX
   105 00000140 56                              	PUSH	ESI
   106 00000141 E8 [00000000]                   	CALL	_api_putstrwin
   107 00000146 83 C4 18                        	ADD	ESP,24
   108 00000149 FF 85 FFFA1DFC                  	INC	DWORD [-385540+EBP]
   109 0000014F                                 L22:
   110 0000014F 8B 95 FFFA1DFC                  	MOV	EDX,DWORD [-385540+EBP]
   111 00000155 6A 00                           	PUSH	0
   112 00000157 FF B5 FFFA1DF0                  	PUSH	DWORD [-385552+EBP]
   113 0000015D 8D 04 D5 0000000A               	LEA	EAX,DWORD [10+EDX*8]
   114 00000164 50                              	PUSH	EAX
   115 00000165 FF B5 FFFA1DF4                  	PUSH	DWORD [-385548+EBP]
   116 0000016B 50                              	PUSH	EAX
   117 0000016C                                 L25:
   118 0000016C 56                              	PUSH	ESI
   119 0000016D E8 [00000000]                   	CALL	_api_boxfilwin
   120 00000172 83 C4 18                        	ADD	ESP,24
   121 00000175 E9 FFFFFF1A                     	JMP	L5
   122 0000017A                                 L30:
   123 0000017A 83 BD FFFA1DFC 63               	CMP	DWORD [-385540+EBP],99
   124 00000181 7F CC                           	JG	L22
   125 00000183 8D 85 FFFA1E02                  	LEA	EAX,DWORD [-385534+EBP]
   126 00000189 89 FA                           	MOV	EDX,EDI
   127 0000018B 50                              	PUSH	EAX
   128 0000018C 88 95 FFFA1E02                  	MOV	BYTE [-385534+EBP],DL
   129 00000192 6A 01                           	PUSH	1
   130 00000194 6A 00                           	PUSH	0
   131 00000196 68 0000019E                     	PUSH	414
   132 0000019B C6 85 FFFA1E03 00               	MOV	BYTE [-385533+EBP],0
   133 000001A2 EB 8E                           	JMP	L26
   134 000001A4                                 L29:
   135 000001A4 83 BD FFFA1DF8 17               	CMP	DWORD [-385544+EBP],23
   136 000001AB 0F 8F FFFFFF4F                  	JG	L18
   137 000001B1 8B 85 FFFA1DF8                  	MOV	EAX,DWORD [-385544+EBP]
   138 000001B7 83 85 FFFA1DF4 10               	ADD	DWORD [-385548+EBP],16
   139 000001BE 83 85 FFFA1DF0 10               	ADD	DWORD [-385552+EBP],16
   140 000001C5 C7 44 85 84 00000064            	MOV	DWORD [-124+EBP+EAX*4],100
   141 000001CD 40                              	INC	EAX
   142 000001CE C7 85 FFFA1DFC 00000000         	MOV	DWORD [-385540+EBP],0
   143 000001D8 89 85 FFFA1DF8                  	MOV	DWORD [-385544+EBP],EAX
   144 000001DE E9 FFFFFF1D                     	JMP	L18
   145 000001E3                                 L28:
   146 000001E3 83 BD FFFA1DF8 17               	CMP	DWORD [-385544+EBP],23
   147 000001EA 0F 8F FFFFFEA4                  	JG	L5
   148 000001F0 6A 07                           	PUSH	7
   149 000001F2 FF B5 FFFA1DF0                  	PUSH	DWORD [-385552+EBP]
   150 000001F8 53                              	PUSH	EBX
   151 000001F9 FF B5 FFFA1DF4                  	PUSH	DWORD [-385548+EBP]
   152 000001FF 53                              	PUSH	EBX
   153 00000200 56                              	PUSH	ESI
   154 00000201 E8 [00000000]                   	CALL	_api_boxfilwin
   155 00000206 6A 00                           	PUSH	0
   156 00000208 83 85 FFFA1DF0 10               	ADD	DWORD [-385552+EBP],16
   157 0000020F 83 85 FFFA1DF4 10               	ADD	DWORD [-385548+EBP],16
   158 00000216 8B 85 FFFA1DF8                  	MOV	EAX,DWORD [-385544+EBP]
   159 0000021C 8B 95 FFFA1DFC                  	MOV	EDX,DWORD [-385540+EBP]
   160 00000222 FF B5 FFFA1DF0                  	PUSH	DWORD [-385552+EBP]
   161 00000228 6A 0A                           	PUSH	10
   162 0000022A 89 54 85 84                     	MOV	DWORD [-124+EBP+EAX*4],EDX
   163 0000022E FF B5 FFFA1DF4                  	PUSH	DWORD [-385548+EBP]
   164 00000234 40                              	INC	EAX
   165 00000235 6A 0A                           	PUSH	10
   166 00000237 C7 85 FFFA1DFC 00000000         	MOV	DWORD [-385540+EBP],0
   167 00000241 89 85 FFFA1DF8                  	MOV	DWORD [-385544+EBP],EAX
   168 00000247                                 L24:
   169 00000247 56                              	PUSH	ESI
   170 00000248 E8 [00000000]                   	CALL	_api_boxfilwin
   171 0000024D 83 C4 30                        	ADD	ESP,48
   172 00000250 E9 FFFFFE3F                     	JMP	L5
   173 00000255                                 L27:
   174 00000255 83 BD FFFA1DFC 00               	CMP	DWORD [-385540+EBP],0
   175 0000025C 0F 8F 00000080                  	JG	L31
   176 00000262 83 BD FFFA1DFC 00               	CMP	DWORD [-385540+EBP],0
   177 00000269 0F 85 FFFFFE25                  	JNE	L5
   178 0000026F 83 BD FFFA1DF8 00               	CMP	DWORD [-385544+EBP],0
   179 00000276 0F 8E FFFFFE18                  	JLE	L5
   180 0000027C 6A 07                           	PUSH	7
   181 0000027E FF B5 FFFA1DF0                  	PUSH	DWORD [-385552+EBP]
   182 00000284 6A 0A                           	PUSH	10
   183 00000286 FF B5 FFFA1DF4                  	PUSH	DWORD [-385548+EBP]
   184 0000028C 6A 0A                           	PUSH	10
   185 0000028E 56                              	PUSH	ESI
   186 0000028F E8 [00000000]                   	CALL	_api_boxfilwin
   187 00000294 6A 00                           	PUSH	0
   188 00000296 FF 8D FFFA1DF8                  	DEC	DWORD [-385544+EBP]
   189 0000029C 8B 85 FFFA1DF8                  	MOV	EAX,DWORD [-385544+EBP]
   190 000002A2 C6 85 FFFA1E02 08               	MOV	BYTE [-385534+EBP],8
   191 000002A9 C6 85 FFFA1E03 00               	MOV	BYTE [-385533+EBP],0
   192 000002B0 83 AD FFFA1DF0 10               	SUB	DWORD [-385552+EBP],16
   193 000002B7 8B 44 85 84                     	MOV	EAX,DWORD [-124+EBP+EAX*4]
   194 000002BB 83 AD FFFA1DF4 10               	SUB	DWORD [-385548+EBP],16
   195 000002C2 FF B5 FFFA1DF0                  	PUSH	DWORD [-385552+EBP]
   196 000002C8 89 85 FFFA1DFC                  	MOV	DWORD [-385540+EBP],EAX
   197 000002CE 8D 04 C5 0000000A               	LEA	EAX,DWORD [10+EAX*8]
   198 000002D5 50                              	PUSH	EAX
   199 000002D6 FF B5 FFFA1DF4                  	PUSH	DWORD [-385548+EBP]
   200 000002DC 50                              	PUSH	EAX
   201 000002DD E9 FFFFFF65                     	JMP	L24
   202 000002E2                                 L31:
   203 000002E2 6A 07                           	PUSH	7
   204 000002E4 FF B5 FFFA1DF0                  	PUSH	DWORD [-385552+EBP]
   205 000002EA 53                              	PUSH	EBX
   206 000002EB FF B5 FFFA1DF4                  	PUSH	DWORD [-385548+EBP]
   207 000002F1 53                              	PUSH	EBX
   208 000002F2 56                              	PUSH	ESI
   209 000002F3 E8 [00000000]                   	CALL	_api_boxfilwin
   210 000002F8 6A 07                           	PUSH	7
   211 000002FA FF 8D FFFA1DFC                  	DEC	DWORD [-385540+EBP]
   212 00000300 8B 9D FFFA1DFC                  	MOV	EBX,DWORD [-385540+EBP]
   213 00000306 C1 E3 03                        	SAL	EBX,3
   214 00000309 FF B5 FFFA1DF0                  	PUSH	DWORD [-385552+EBP]
   215 0000030F 8D 43 12                        	LEA	EAX,DWORD [18+EBX]
   216 00000312 83 C3 0A                        	ADD	EBX,10
   217 00000315 50                              	PUSH	EAX
   218 00000316 FF B5 FFFA1DF4                  	PUSH	DWORD [-385548+EBP]
   219 0000031C 53                              	PUSH	EBX
   220 0000031D 56                              	PUSH	ESI
   221 0000031E E8 [00000000]                   	CALL	_api_boxfilwin
   222 00000323 83 C4 30                        	ADD	ESP,48
   223 00000326 6A 00                           	PUSH	0
   224 00000328 FF B5 FFFA1DF0                  	PUSH	DWORD [-385552+EBP]
   225 0000032E 53                              	PUSH	EBX
   226 0000032F FF B5 FFFA1DF4                  	PUSH	DWORD [-385548+EBP]
   227 00000335 53                              	PUSH	EBX
   228 00000336 E9 FFFFFE31                     	JMP	L25
